ccollections
defaultdict
p0
(c__builtin__
list
p1
tp2
Rp3
S'eduroam'
p4
(lp5
F-51.0
aF-51.0
aF-51.0
aF-51.0
aF-51.0
aF-50.0
aF-51.0
aF-51.0
aF-51.0
aF-50.0
aF-50.0
aF-51.0
aF-52.0
aF-52.0
aF-52.0
aF-52.0
aF-52.0
aF-52.0
aF-51.0
aF-52.0
aF-52.0
aF-51.0
aF-51.0
aF-51.0
aF-52.0
aF-51.0
aF-53.0
aF-49.0
aF-51.0
aF-51.0
aF-52.0
aF-50.0
aF-50.0
aF-50.0
aF-55.0
aF-52.0
aF-54.0
aF-52.0
aF-51.0
aF-50.0
aF-53.0
aF-51.0
aF-50.0
aF-52.0
aF-53.0
aF-53.0
aF-51.0
aF-53.0
aF-50.0
aF-53.0
aF-51.0
aF-50.0
aF-49.0
aF-49.0
aF-50.0
aF-50.0
aF-50.0
aF-50.0
aF-49.0
aF-50.0
aF-50.0
aF-50.0
aF-51.0
aF-50.0
aF-50.0
aF-50.0
aF-50.0
aF-50.0
aF-51.0
asS'DataCenter'
p6
(lp7
F-85.0
aF-85.0
aF-82.0
aF-82.0
aF-85.0
aF-82.0
aF-85.0
aF-85.0
aF-82.0
aF-85.0
aF-82.0
aF-82.0
aF-85.0
asS'DIRECT-59-HP M227f LaserJet'
p8
(lp9
F-71.0
aF-70.0
aF-78.0
aF-71.0
aF-73.0
aF-73.0
aF-68.0
aF-68.0
aF-71.0
aF-72.0
aF-73.0
aF-71.0
aF-72.0
aF-71.0
aF-68.0
aF-70.0
aF-70.0
aF-68.0
aF-76.0
aF-70.0
aF-70.0
aF-68.0
aF-72.0
aF-70.0
aF-70.0
aF-72.0
aF-69.0
aF-70.0
aF-71.0
aF-74.0
aF-70.0
aF-70.0
aF-68.0
aF-73.0
aF-70.0
aF-83.0
aF-68.0
aF-83.0
aF-75.0
aF-69.0
aF-71.0
aF-70.0
aF-68.0
aF-77.0
aF-66.0
aF-71.0
aF-70.0
aF-72.0
aF-71.0
aF-66.0
aF-71.0
aF-69.0
aF-72.0
aF-71.0
aF-69.0
aF-71.0
aF-73.0
aF-71.0
aF-71.0
aF-70.0
aF-68.0
aF-68.0
aF-71.0
aF-71.0
aF-69.0
aF-69.0
aF-69.0
aF-71.0
aF-71.0
asS'rpi_netreg'
p10
(lp11
F-50.0
aF-50.0
aF-51.0
aF-50.0
aF-50.0
aF-50.0
aF-51.0
aF-51.0
aF-51.0
aF-51.0
aF-50.0
aF-51.0
aF-51.0
aF-50.0
aF-51.0
aF-52.0
aF-51.0
aF-52.0
aF-50.0
aF-52.0
aF-52.0
aF-49.0
aF-51.0
aF-51.0
aF-52.0
aF-51.0
aF-53.0
aF-49.0
aF-51.0
aF-51.0
aF-52.0
aF-50.0
aF-50.0
aF-50.0
aF-55.0
aF-52.0
aF-53.0
aF-53.0
aF-50.0
aF-50.0
aF-53.0
aF-51.0
aF-50.0
aF-51.0
aF-50.0
aF-53.0
aF-52.0
aF-54.0
aF-50.0
aF-51.0
aF-53.0
aF-50.0
aF-49.0
aF-51.0
aF-50.0
aF-50.0
aF-50.0
aF-50.0
aF-49.0
aF-51.0
aF-51.0
aF-50.0
aF-51.0
aF-50.0
aF-50.0
aF-49.0
aF-49.0
aF-50.0
aF-51.0
asS'rpi_wpa2'
p12
(lp13
F-50.0
aF-51.0
aF-51.0
aF-50.0
aF-51.0
aF-50.0
aF-51.0
aF-51.0
aF-51.0
aF-50.0
aF-50.0
aF-51.0
aF-52.0
aF-52.0
aF-52.0
aF-52.0
aF-52.0
aF-52.0
aF-51.0
aF-52.0
aF-52.0
aF-51.0
aF-51.0
aF-51.0
aF-52.0
aF-51.0
aF-53.0
aF-50.0
aF-51.0
aF-51.0
aF-53.0
aF-50.0
aF-50.0
aF-50.0
aF-55.0
aF-53.0
aF-53.0
aF-53.0
aF-51.0
aF-50.0
aF-53.0
aF-52.0
aF-50.0
aF-52.0
aF-53.0
aF-53.0
aF-52.0
aF-53.0
aF-49.0
aF-53.0
aF-52.0
aF-50.0
aF-49.0
aF-49.0
aF-50.0
aF-50.0
aF-50.0
aF-50.0
aF-49.0
aF-50.0
aF-50.0
aF-50.0
aF-50.0
aF-50.0
aF-50.0
aF-50.0
aF-50.0
aF-50.0
aF-51.0
asS'civil'
p14
(lp15
F-58.0
aF-58.0
aF-57.0
aF-57.0
aF-59.0
aF-59.0
aF-57.0
aF-58.0
aF-59.0
aF-56.0
aF-56.0
aF-58.0
aF-59.0
aF-61.0
aF-56.0
aF-61.0
aF-60.0
aF-57.0
aF-49.0
aF-58.0
aF-59.0
aF-59.0
aF-62.0
aF-59.0
aF-59.0
aF-62.0
aF-56.0
aF-56.0
aF-56.0
aF-57.0
aF-56.0
aF-56.0
aF-62.0
aF-57.0
aF-56.0
aF-57.0
aF-58.0
aF-57.0
aF-56.0
aF-61.0
aF-55.0
aF-56.0
aF-55.0
aF-56.0
aF-56.0
aF-55.0
aF-56.0
aF-57.0
aF-57.0
aF-57.0
aF-57.0
aF-57.0
aF-58.0
aF-58.0
aF-56.0
aF-56.0
aF-57.0
aF-57.0
aF-56.0
aF-58.0
aF-58.0
aF-57.0
aF-58.0
aF-58.0
aF-58.0
aF-59.0
aF-59.0
aF-57.0
aF-58.0
asS'duckietown-guest'
p16
(lp17
F-37.0
aF-38.0
aF-36.0
aF-36.0
aF-39.0
aF-36.0
aF-46.0
aF-37.0
aF-36.0
aF-38.0
aF-40.0
aF-40.0
aF-41.0
aF-39.0
aF-41.0
aF-42.0
aF-41.0
aF-39.0
aF-38.0
aF-42.0
aF-40.0
aF-40.0
aF-37.0
aF-38.0
aF-39.0
aF-36.0
aF-39.0
aF-34.0
aF-41.0
aF-38.0
aF-37.0
aF-34.0
aF-38.0
aF-38.0
aF-33.0
aF-39.0
aF-38.0
aF-39.0
aF-38.0
aF-39.0
aF-39.0
aF-44.0
aF-31.0
aF-40.0
aF-34.0
aF-39.0
aF-48.0
aF-40.0
aF-38.0
aF-34.0
aF-38.0
aF-40.0
aF-37.0
aF-38.0
aF-36.0
aF-37.0
aF-37.0
aF-36.0
aF-40.0
aF-37.0
aF-38.0
aF-37.0
aF-37.0
aF-37.0
aF-36.0
aF-38.0
aF-38.0
aF-35.0
aF-37.0
asS'IOT-AP03'
p18
(lp19
F-35.0
aF-35.0
aF-34.0
aF-35.0
aF-35.0
aF-35.0
aF-35.0
aF-35.0
aF-35.0
aF-36.0
aF-38.0
aF-35.0
aF-34.0
aF-33.0
aF-36.0
aF-34.0
aF-34.0
aF-36.0
aF-34.0
aF-34.0
aF-34.0
aF-34.0
aF-34.0
aF-35.0
aF-36.0
aF-34.0
aF-33.0
aF-34.0
aF-36.0
aF-37.0
aF-33.0
aF-34.0
aF-34.0
aF-37.0
aF-34.0
aF-34.0
aF-35.0
aF-33.0
aF-36.0
aF-34.0
aF-36.0
aF-35.0
aF-33.0
aF-36.0
aF-33.0
aF-36.0
aF-34.0
aF-36.0
aF-35.0
aF-34.0
aF-33.0
aF-37.0
aF-34.0
aF-35.0
aF-36.0
aF-34.0
aF-37.0
aF-36.0
aF-35.0
aF-34.0
aF-36.0
aF-36.0
aF-35.0
aF-35.0
aF-35.0
aF-35.0
aF-36.0
aF-35.0
aF-35.0
asS'IOT-AP01'
p20
(lp21
F-50.0
aF-51.0
aF-50.0
aF-50.0
aF-50.0
aF-50.0
aF-48.0
aF-49.0
aF-48.0
aF-51.0
aF-51.0
aF-49.0
aF-51.0
aF-52.0
aF-51.0
aF-53.0
aF-53.0
aF-52.0
aF-52.0
aF-55.0
aF-53.0
aF-51.0
aF-51.0
aF-48.0
aF-49.0
aF-50.0
aF-53.0
aF-42.0
aF-52.0
aF-51.0
aF-51.0
aF-44.0
aF-52.0
aF-51.0
aF-44.0
aF-50.0
aF-54.0
aF-51.0
aF-51.0
aF-51.0
aF-52.0
aF-51.0
aF-44.0
aF-48.0
aF-44.0
aF-52.0
aF-48.0
aF-50.0
aF-49.0
aF-43.0
aF-47.0
aF-51.0
aF-49.0
aF-50.0
aF-50.0
aF-51.0
aF-51.0
aF-50.0
aF-51.0
aF-50.0
aF-50.0
aF-50.0
aF-50.0
aF-50.0
aF-50.0
aF-50.0
aF-50.0
aF-49.0
aF-50.0
asS'IOT-AP04'
p22
(lp23
F-43.0
aF-45.0
aF-47.0
aF-42.0
aF-44.0
aF-45.0
aF-43.0
aF-42.0
aF-44.0
aF-44.0
aF-44.0
aF-43.0
aF-46.0
aF-47.0
aF-43.0
aF-45.0
aF-49.0
aF-44.0
aF-46.0
aF-45.0
aF-46.0
aF-47.0
aF-45.0
aF-43.0
aF-44.0
aF-46.0
aF-45.0
aF-46.0
aF-44.0
aF-44.0
aF-45.0
aF-47.0
aF-47.0
aF-49.0
aF-46.0
aF-44.0
aF-49.0
aF-44.0
aF-44.0
aF-44.0
aF-44.0
aF-46.0
aF-44.0
aF-45.0
aF-46.0
aF-44.0
aF-47.0
aF-44.0
aF-44.0
aF-44.0
aF-44.0
aF-42.0
aF-44.0
aF-45.0
aF-45.0
aF-42.0
aF-43.0
aF-45.0
aF-41.0
aF-43.0
aF-44.0
aF-45.0
aF-44.0
aF-44.0
aF-44.0
aF-45.0
aF-44.0
aF-42.0
aF-43.0
asS'ECSE_5G_Guest_2GEXT'
p24
(lp25
F-80.0
aF-80.0
aF-80.0
aF-80.0
aF-80.0
aF-80.0
aF-80.0
asS'duckietown'
p26
(lp27
F-38.0
aF-38.0
aF-37.0
aF-35.0
aF-38.0
aF-37.0
aF-40.0
aF-35.0
aF-36.0
aF-38.0
aF-39.0
aF-36.0
aF-40.0
aF-39.0
aF-40.0
aF-39.0
aF-40.0
aF-39.0
aF-38.0
aF-39.0
aF-39.0
aF-36.0
aF-36.0
aF-37.0
aF-39.0
aF-36.0
aF-36.0
aF-32.0
aF-39.0
aF-36.0
aF-37.0
aF-32.0
aF-37.0
aF-39.0
aF-32.0
aF-39.0
aF-38.0
aF-39.0
aF-37.0
aF-38.0
aF-39.0
aF-38.0
aF-32.0
aF-39.0
aF-32.0
aF-39.0
aF-39.0
aF-40.0
aF-38.0
aF-33.0
aF-38.0
aF-36.0
aF-35.0
aF-35.0
aF-35.0
aF-36.0
aF-36.0
aF-35.0
aF-39.0
aF-36.0
aF-36.0
aF-36.0
aF-37.0
aF-37.0
aF-35.0
aF-35.0
aF-35.0
aF-37.0
aF-36.0
as.